; Function Attrs: mustprogress uwtable
define void @_ZNK5ZXing5Aztec6Writer6encodeERKNSt7__cxx1112basic_stringIwSt11char_traitsIwESaIwEEEii(ptr dead_on_unwind noalias writable sret(%"class.ZXing::BitMatrix") align 8 %0, ptr nocapture noundef nonnull readonly align 4 dereferenceable(16) %1, ptr noundef nonnull align 8 dereferenceable(32) %2, i32 noundef %3, i32 noundef %4) local_unnamed_addr #1 align 2 personality ptr @__gxx_personality_v0 {
  %6 = alloca %"class.std::__cxx11::basic_string", align 8
  %7 = alloca %"struct.ZXing::Aztec::EncodeResult", align 8
  %8 = load i8, ptr %1, align 4
  call void @_ZNSt7__cxx1112basic_stringIcSt11char_traitsIcESaIcEEC1Ev(ptr noundef nonnull align 8 dereferenceable(32) %6) #5
  invoke void @_ZN5ZXing11TextEncoder8GetBytesERKNSt7__cxx1112basic_stringIwSt11char_traitsIwESaIwEEENS_12CharacterSetERNS2_IcS3_IcESaIcEEE(ptr noundef nonnull align 8 dereferenceable(32) %2, i8 noundef zeroext %8, ptr noundef nonnull align 8 dereferenceable(32) %6)
          to label %_ZN5ZXing11TextEncoder11FromUnicodeERKNSt7__cxx1112basic_stringIwSt11char_traitsIwESaIwEEENS_12CharacterSetE.exit unwind label %9

common.resume:                                    ; preds = %23, %25, %29, %9
  %common.resume.op = phi { ptr, i32 } [ %10, %9 ], [ %24, %23 ], [ %26, %25 ], [ %26, %29 ]
  call void @_ZNSt7__cxx1112basic_stringIcSt11char_traitsIcESaIcEED1Ev(ptr noundef nonnull align 8 dereferenceable(32) %6) #5
  resume { ptr, i32 } %common.resume.op

9:                                                ; preds = %5
  %10 = landingpad { ptr, i32 }
          cleanup
  br label %common.resume

_ZN5ZXing11TextEncoder11FromUnicodeERKNSt7__cxx1112basic_stringIwSt11char_traitsIwESaIwEEENS_12CharacterSetE.exit: ; preds = %5
  %11 = getelementptr inbounds i8, ptr %1, i64 4
  %12 = load i32, ptr %11, align 4
  %13 = getelementptr inbounds i8, ptr %1, i64 8
  %14 = load i32, ptr %13, align 4
  invoke void @_ZN5ZXing5Aztec7Encoder6EncodeERKNSt7__cxx1112basic_stringIcSt11char_traitsIcESaIcEEEii(ptr dead_on_unwind nonnull writable sret(%"struct.ZXing::Aztec::EncodeResult") align 8 %7, ptr noundef nonnull align 8 dereferenceable(32) %6, i32 noundef %12, i32 noundef %14)
          to label %15 unwind label %23

15:                                               ; preds = %_ZN5ZXing11TextEncoder11FromUnicodeERKNSt7__cxx1112basic_stringIwSt11char_traitsIwESaIwEEENS_12CharacterSetE.exit
  %16 = getelementptr inbounds i8, ptr %7, i64 16
  %17 = getelementptr inbounds i8, ptr %1, i64 12
  %18 = load i32, ptr %17, align 4
  invoke void @_ZN5ZXing7InflateEONS_9BitMatrixEiii(ptr dead_on_unwind writable sret(%"class.ZXing::BitMatrix") align 8 %0, ptr noundef nonnull align 8 dereferenceable(32) %16, i32 noundef %3, i32 noundef %4, i32 noundef %18)
          to label %19 unwind label %25

19:                                               ; preds = %15
  %20 = getelementptr inbounds i8, ptr %7, i64 24
  %21 = load ptr, ptr %20, align 8
  %.not.i.i.i.i.i = icmp eq ptr %21, null
  br i1 %.not.i.i.i.i.i, label %_ZN5ZXing5Aztec12EncodeResultD2Ev.exit, label %22

22:                                               ; preds = %19
  call void @_ZdlPv(ptr noundef nonnull %21) #6
  br label %_ZN5ZXing5Aztec12EncodeResultD2Ev.exit

_ZN5ZXing5Aztec12EncodeResultD2Ev.exit:           ; preds = %19, %22
  call void @_ZNSt7__cxx1112basic_stringIcSt11char_traitsIcESaIcEED1Ev(ptr noundef nonnull align 8 dereferenceable(32) %6) #5
  ret void

23:                                               ; preds = %_ZN5ZXing11TextEncoder11FromUnicodeERKNSt7__cxx1112basic_stringIwSt11char_traitsIwESaIwEEENS_12CharacterSetE.exit
  %24 = landingpad { ptr, i32 }
          cleanup
  br label %common.resume

25:                                               ; preds = %15
  %26 = landingpad { ptr, i32 }
          cleanup
  %27 = getelementptr inbounds i8, ptr %7, i64 24
  %28 = load ptr, ptr %27, align 8
  %.not.i.i.i.i.i7 = icmp eq ptr %28, null
  br i1 %.not.i.i.i.i.i7, label %common.resume, label %29

29:                                               ; preds = %25
  call void @_ZdlPv(ptr noundef nonnull %28) #6
  br label %common.resume
}